(lp0
S'http://stats.nba.com/team/#!/1610612738/stats/?t=celtics'
p1
aS'http://stats.nba.com/team/#!/1610612751/stats/?t=nets'
p2
aS'http://stats.nba.com/team/#!/1610612752/stats/?t=knicks'
p3
aS'http://stats.nba.com/team/#!/1610612755/stats/?t=sixers'
p4
aS'http://stats.nba.com/team/#!/1610612761/stats/?t=raptors'
p5
aS'http://stats.nba.com/team/#!/1610612741/stats/?t=bulls'
p6
aS'http://stats.nba.com/team/#!/1610612739/stats/?t=cavaliers'
p7
aS'http://stats.nba.com/team/#!/1610612765/stats/?t=pistons'
p8
aS'http://stats.nba.com/team/#!/1610612754/stats/?t=pacers'
p9
aS'http://stats.nba.com/team/#!/1610612749/stats/?t=bucks'
p10
aS'http://stats.nba.com/team/#!/1610612737/stats/?t=hawks'
p11
aS'http://stats.nba.com/team/#!/1610612766/stats/?t=hornets'
p12
aS'http://stats.nba.com/team/#!/1610612748/stats/?t=heat'
p13
aS'http://stats.nba.com/team/#!/1610612753/stats/?t=magic'
p14
aS'http://stats.nba.com/team/#!/1610612764/stats/?t=wizards'
p15
aS'http://stats.nba.com/team/#!/1610612743/stats/?t=nuggets'
p16
aS'http://stats.nba.com/team/#!/1610612750/stats/?t=timberwolves'
p17
aS'http://stats.nba.com/team/#!/1610612760/stats/?t=thunder'
p18
aS'http://stats.nba.com/team/#!/1610612757/stats/?t=trail-blazers'
p19
aS'http://stats.nba.com/team/#!/1610612762/stats/?t=jazz'
p20
aS'http://stats.nba.com/team/#!/1610612744/stats/?t=warriors'
p21
aS'http://stats.nba.com/team/#!/1610612746/stats/?t=clippers'
p22
aS'http://stats.nba.com/team/#!/1610612747/stats/?t=lakers'
p23
aS'http://stats.nba.com/team/#!/1610612756/stats/?t=suns'
p24
aS'http://stats.nba.com/team/#!/1610612758/stats/?t=kings'
p25
aS'http://stats.nba.com/team/#!/1610612742/stats/?t=mavericks'
p26
aS'http://stats.nba.com/team/#!/1610612745/stats/?t=rockets'
p27
aS'http://stats.nba.com/team/#!/1610612763/stats/?t=grizzlies'
p28
aS'http://stats.nba.com/team/#!/1610612740/stats/?t=pelicans'
p29
aS'http://stats.nba.com/team/#!/1610612759/stats/?t=spurs'
p30
a.