(lp0
S'http://stats.nba.com/team/#!/1610612738/gamelogs/?t=celtics'
p1
aS'http://stats.nba.com/team/#!/1610612751/gamelogs/?t=nets'
p2
aS'http://stats.nba.com/team/#!/1610612752/gamelogs/?t=knicks'
p3
aS'http://stats.nba.com/team/#!/1610612755/gamelogs/?t=sixers'
p4
aS'http://stats.nba.com/team/#!/1610612761/gamelogs/?t=raptors'
p5
aS'http://stats.nba.com/team/#!/1610612741/gamelogs/?t=bulls'
p6
aS'http://stats.nba.com/team/#!/1610612739/gamelogs/?t=cavaliers'
p7
aS'http://stats.nba.com/team/#!/1610612765/gamelogs/?t=pistons'
p8
aS'http://stats.nba.com/team/#!/1610612754/gamelogs/?t=pacers'
p9
aS'http://stats.nba.com/team/#!/1610612749/gamelogs/?t=bucks'
p10
aS'http://stats.nba.com/team/#!/1610612737/gamelogs/?t=hawks'
p11
aS'http://stats.nba.com/team/#!/1610612766/gamelogs/?t=hornets'
p12
aS'http://stats.nba.com/team/#!/1610612748/gamelogs/?t=heat'
p13
aS'http://stats.nba.com/team/#!/1610612753/gamelogs/?t=magic'
p14
aS'http://stats.nba.com/team/#!/1610612764/gamelogs/?t=wizards'
p15
aS'http://stats.nba.com/team/#!/1610612743/gamelogs/?t=nuggets'
p16
aS'http://stats.nba.com/team/#!/1610612750/gamelogs/?t=timberwolves'
p17
aS'http://stats.nba.com/team/#!/1610612760/gamelogs/?t=thunder'
p18
aS'http://stats.nba.com/team/#!/1610612757/gamelogs/?t=trail-blazers'
p19
aS'http://stats.nba.com/team/#!/1610612762/gamelogs/?t=jazz'
p20
aS'http://stats.nba.com/team/#!/1610612744/gamelogs/?t=warriors'
p21
aS'http://stats.nba.com/team/#!/1610612746/gamelogs/?t=clippers'
p22
aS'http://stats.nba.com/team/#!/1610612747/gamelogs/?t=lakers'
p23
aS'http://stats.nba.com/team/#!/1610612756/gamelogs/?t=suns'
p24
aS'http://stats.nba.com/team/#!/1610612758/gamelogs/?t=kings'
p25
aS'http://stats.nba.com/team/#!/1610612742/gamelogs/?t=mavericks'
p26
aS'http://stats.nba.com/team/#!/1610612745/gamelogs/?t=rockets'
p27
aS'http://stats.nba.com/team/#!/1610612763/gamelogs/?t=grizzlies'
p28
aS'http://stats.nba.com/team/#!/1610612740/gamelogs/?t=pelicans'
p29
aS'http://stats.nba.com/team/#!/1610612759/gamelogs/?t=spurs'
p30
a.